target datalayout = "e-m:e-p270:32:32-p271:32:32-p272:64:64-i64:64-i128:128-f80:128-n8:16:32:64-S128"
target triple = "x86_64-pc-linux-gnu"

; Function Attrs: mustprogress nounwind uwtable
define internal noundef zeroext i16 @_ZL7getLinkDs(i16 noundef zeroext %0) #6 {
  %2 = alloca i16, align 2
  %3 = alloca i16, align 2
  store i16 %0, ptr %3, align 2, !tbaa !16
  %4 = load i16, ptr %3, align 2, !tbaa !16
  %5 = zext i16 %4 to i32
  %6 = icmp sge i32 %5, 1570
  br i1 %6, label %7, label %18

7:                                                ; preds = %1
  %8 = load i16, ptr %3, align 2, !tbaa !16
  %9 = zext i16 %8 to i32
  %10 = icmp sle i32 %9, 1747
  br i1 %10, label %11, label %18

11:                                               ; preds = %7
  %12 = load i16, ptr %3, align 2, !tbaa !16
  %13 = zext i16 %12 to i32
  %14 = sub nsw i32 %13, 1570
  %15 = sext i32 %14 to i64
  %16 = getelementptr inbounds [178 x i16], ptr @_ZL7araLink, i64 0, i64 %15
  %17 = load i16, ptr %16, align 2, !tbaa !16
  store i16 %17, ptr %2, align 2
  br label %65

18:                                               ; preds = %7, %1
  %19 = load i16, ptr %3, align 2, !tbaa !16
  %20 = zext i16 %19 to i32
  %21 = icmp eq i32 %20, 8205
  br i1 %21, label %22, label %23

22:                                               ; preds = %18
  store i16 3, ptr %2, align 2
  br label %65

23:                                               ; preds = %18
  %24 = load i16, ptr %3, align 2, !tbaa !16
  %25 = zext i16 %24 to i32
  %26 = icmp sge i32 %25, 8301
  br i1 %26, label %27, label %32

27:                                               ; preds = %23
  %28 = load i16, ptr %3, align 2, !tbaa !16
  %29 = zext i16 %28 to i32
  %30 = icmp sle i32 %29, 8303
  br i1 %30, label %31, label %32

31:                                               ; preds = %27
  store i16 4, ptr %2, align 2
  br label %65

32:                                               ; preds = %27, %23
  %33 = load i16, ptr %3, align 2, !tbaa !16
  %34 = zext i16 %33 to i32
  %35 = icmp sge i32 %34, 64336
  br i1 %35, label %36, label %48

36:                                               ; preds = %32
  %37 = load i16, ptr %3, align 2, !tbaa !16
  %38 = zext i16 %37 to i32
  %39 = icmp sle i32 %38, 64610
  br i1 %39, label %40, label %48

40:                                               ; preds = %36
  %41 = load i16, ptr %3, align 2, !tbaa !16
  %42 = zext i16 %41 to i32
  %43 = sub nsw i32 %42, 64336
  %44 = sext i32 %43 to i64
  %45 = getelementptr inbounds [275 x i8], ptr @_ZL9presALink, i64 0, i64 %44
  %46 = load i8, ptr %45, align 1, !tbaa !27
  %47 = zext i8 %46 to i16
  store i16 %47, ptr %2, align 2
  br label %65

48:                                               ; preds = %36, %32
  %49 = load i16, ptr %3, align 2, !tbaa !16
  %50 = zext i16 %49 to i32
  %51 = icmp sge i32 %50, 65136
  br i1 %51, label %52, label %64

52:                                               ; preds = %48
  %53 = load i16, ptr %3, align 2, !tbaa !16
  %54 = zext i16 %53 to i32
  %55 = icmp sle i32 %54, 65276
  br i1 %55, label %56, label %64

56:                                               ; preds = %52
  %57 = load i16, ptr %3, align 2, !tbaa !16
  %58 = zext i16 %57 to i32
  %59 = sub nsw i32 %58, 65136
  %60 = sext i32 %59 to i64
  %61 = getelementptr inbounds [144 x i8], ptr @_ZL9presBLink, i64 0, i64 %60
  %62 = load i8, ptr %61, align 1, !tbaa !27
  %63 = zext i8 %62 to i16
  store i16 %63, ptr %2, align 2
  br label %65

64:                                               ; preds = %52, %48
  store i16 0, ptr %2, align 2
  br label %65

65:                                               ; preds = %64, %56, %40, %31, %22, %11
  %66 = load i16, ptr %2, align 2
  ret i16 %66
}