; Function Attrs: mustprogress nofree norecurse nosync nounwind willreturn memory(none) uwtable
define internal fastcc noundef zeroext i16 @_ZL7getLinkDs(i16 noundef zeroext %0) unnamed_addr #5 {
  %2 = zext i16 %0 to i32
  %3 = add i16 %0, -1570
  %or.cond = icmp ult i16 %3, 178
  br i1 %or.cond, label %4, label %9

4:                                                ; preds = %1
  %5 = add nsw i32 %2, -1570
  %6 = zext nneg i32 %5 to i64
  %7 = getelementptr inbounds nuw [178 x i16], ptr @_ZL7araLink, i64 0, i64 %6
  %8 = load i16, ptr %7, align 2, !tbaa !9
  br label %29

9:                                                ; preds = %1
  %10 = icmp eq i16 %0, 8205
  br i1 %10, label %29, label %11

11:                                               ; preds = %9
  %12 = add i16 %0, -8301
  %or.cond5 = icmp ult i16 %12, 3
  br i1 %or.cond5, label %29, label %13

13:                                               ; preds = %11
  %14 = add i16 %0, 1200
  %or.cond8 = icmp ult i16 %14, 275
  br i1 %or.cond8, label %15, label %21

15:                                               ; preds = %13
  %16 = add nsw i32 %2, -64336
  %17 = zext nneg i32 %16 to i64
  %18 = getelementptr inbounds nuw [275 x i8], ptr @_ZL9presALink, i64 0, i64 %17
  %19 = load i8, ptr %18, align 1, !tbaa !16
  %20 = zext i8 %19 to i16
  br label %29

21:                                               ; preds = %13
  %22 = add i16 %0, 400
  %or.cond11 = icmp ult i16 %22, 141
  br i1 %or.cond11, label %23, label %29

23:                                               ; preds = %21
  %24 = add nsw i32 %2, -65136
  %25 = zext nneg i32 %24 to i64
  %26 = getelementptr inbounds nuw [144 x i8], ptr @_ZL9presBLink, i64 0, i64 %25
  %27 = load i8, ptr %26, align 1, !tbaa !16
  %28 = zext i8 %27 to i16
  br label %29

29:                                               ; preds = %21, %11, %9, %23, %15, %4
  %.0 = phi i16 [ %8, %4 ], [ %20, %15 ], [ %28, %23 ], [ 3, %9 ], [ 4, %11 ], [ 0, %21 ]
  ret i16 %.0
}